CCS PCM C Compiler, Version 5.015, 5967               19-Thg6-23 16:18

               Filename:   C:\Users\Administrator\Documents\project_pic\UART PROTOCOL between 2 microcontroller\code_master\main.lst

               ROM used:   398 words (5%)
                           Largest free fragment is 2048
               RAM used:   9 (2%) at main() level
                           22 (6%) worst case
               Stack used: 1 locations
               Stack size: 8

*
0000:  MOVLW  01
0001:  MOVWF  0A
0002:  GOTO   110
0003:  NOP
.................... #include <16F877A.h> 
.................... //////////// Standard Header file for the PIC16F877A device //////////////// 
.................... /////////////////////////////////////////////////////////////////////////// 
.................... ////        (C) Copyright 1996, 2013 Custom Computer Services          //// 
.................... //// This source code may only be used by licensed users of the CCS C  //// 
.................... //// compiler.  This source code may only be distributed to other      //// 
.................... //// licensed users of the CCS C compiler.  No other use, reproduction //// 
.................... //// or distribution is permitted without written permission.          //// 
.................... //// Derivative programs created using this software in object code    //// 
.................... //// form are not restricted in any way.                               //// 
.................... /////////////////////////////////////////////////////////////////////////// 
.................... #device PIC16F877A 
0004:  MOVLW  8E
0005:  MOVWF  77
0006:  MOVF   24,W
0007:  MOVWF  78
0008:  MOVF   23,W
0009:  MOVWF  79
000A:  CLRF   7A
000B:  MOVF   78,F
000C:  BTFSS  03.2
000D:  GOTO   018
000E:  MOVF   79,W
000F:  MOVWF  78
0010:  CLRF   79
0011:  MOVLW  08
0012:  SUBWF  77,F
0013:  MOVF   78,F
0014:  BTFSS  03.2
0015:  GOTO   018
0016:  CLRF   77
0017:  GOTO   020
0018:  BCF    03.0
0019:  BTFSC  78.7
001A:  GOTO   01F
001B:  RLF    79,F
001C:  RLF    78,F
001D:  DECF   77,F
001E:  GOTO   018
001F:  BCF    78.7
0020:  BCF    0A.3
0021:  BCF    0A.4
0022:  GOTO   153 (RETURN)
0023:  MOVF   23,W
0024:  BTFSC  03.2
0025:  GOTO   0E8
0026:  MOVWF  2F
0027:  MOVF   27,W
0028:  BTFSC  03.2
0029:  GOTO   0E8
002A:  SUBWF  2F,F
002B:  BTFSS  03.0
002C:  GOTO   032
002D:  MOVLW  7F
002E:  ADDWF  2F,F
002F:  BTFSC  03.0
0030:  GOTO   0E8
0031:  GOTO   038
0032:  MOVLW  81
0033:  SUBWF  2F,F
0034:  BTFSS  03.0
0035:  GOTO   0E8
0036:  BTFSC  03.2
0037:  GOTO   0E8
0038:  MOVF   2F,W
0039:  MOVWF  77
003A:  CLRF   78
003B:  CLRF   79
003C:  CLRF   7A
003D:  CLRF   2E
003E:  MOVF   24,W
003F:  MOVWF  2D
0040:  BSF    2D.7
0041:  MOVF   25,W
0042:  MOVWF  2C
0043:  MOVF   26,W
0044:  MOVWF  2B
0045:  MOVLW  19
0046:  MOVWF  2F
0047:  MOVF   2A,W
0048:  SUBWF  2B,F
0049:  BTFSC  03.0
004A:  GOTO   05B
004B:  MOVLW  01
004C:  SUBWF  2C,F
004D:  BTFSC  03.0
004E:  GOTO   05B
004F:  SUBWF  2D,F
0050:  BTFSC  03.0
0051:  GOTO   05B
0052:  SUBWF  2E,F
0053:  BTFSC  03.0
0054:  GOTO   05B
0055:  INCF   2E,F
0056:  INCF   2D,F
0057:  INCF   2C,F
0058:  MOVF   2A,W
0059:  ADDWF  2B,F
005A:  GOTO   08D
005B:  MOVF   29,W
005C:  SUBWF  2C,F
005D:  BTFSC  03.0
005E:  GOTO   076
005F:  MOVLW  01
0060:  SUBWF  2D,F
0061:  BTFSC  03.0
0062:  GOTO   076
0063:  SUBWF  2E,F
0064:  BTFSC  03.0
0065:  GOTO   076
0066:  INCF   2E,F
0067:  INCF   2D,F
0068:  MOVF   29,W
0069:  ADDWF  2C,F
006A:  MOVF   2A,W
006B:  ADDWF  2B,F
006C:  BTFSS  03.0
006D:  GOTO   08D
006E:  INCF   2C,F
006F:  BTFSS  03.2
0070:  GOTO   08D
0071:  INCF   2D,F
0072:  BTFSS  03.2
0073:  GOTO   08D
0074:  INCF   2E,F
0075:  GOTO   08D
0076:  MOVF   28,W
0077:  IORLW  80
0078:  SUBWF  2D,F
0079:  BTFSC  03.0
007A:  GOTO   08C
007B:  MOVLW  01
007C:  SUBWF  2E,F
007D:  BTFSC  03.0
007E:  GOTO   08C
007F:  INCF   2E,F
0080:  MOVF   28,W
0081:  IORLW  80
0082:  ADDWF  2D,F
0083:  MOVF   29,W
0084:  ADDWF  2C,F
0085:  BTFSS  03.0
0086:  GOTO   06A
0087:  INCF   2D,F
0088:  BTFSS  03.2
0089:  GOTO   06A
008A:  INCF   2E,F
008B:  GOTO   06A
008C:  BSF    7A.0
008D:  DECFSZ 2F,F
008E:  GOTO   090
008F:  GOTO   09B
0090:  BCF    03.0
0091:  RLF    2B,F
0092:  RLF    2C,F
0093:  RLF    2D,F
0094:  RLF    2E,F
0095:  BCF    03.0
0096:  RLF    7A,F
0097:  RLF    79,F
0098:  RLF    78,F
0099:  RLF    30,F
009A:  GOTO   047
009B:  BTFSS  30.0
009C:  GOTO   0A3
009D:  BCF    03.0
009E:  RRF    78,F
009F:  RRF    79,F
00A0:  RRF    7A,F
00A1:  RRF    30,F
00A2:  GOTO   0A6
00A3:  DECF   77,F
00A4:  BTFSC  03.2
00A5:  GOTO   0E8
00A6:  BTFSC  30.7
00A7:  GOTO   0CF
00A8:  BCF    03.0
00A9:  RLF    2B,F
00AA:  RLF    2C,F
00AB:  RLF    2D,F
00AC:  RLF    2E,F
00AD:  MOVF   2A,W
00AE:  SUBWF  2B,F
00AF:  BTFSC  03.0
00B0:  GOTO   0BB
00B1:  MOVLW  01
00B2:  SUBWF  2C,F
00B3:  BTFSC  03.0
00B4:  GOTO   0BB
00B5:  SUBWF  2D,F
00B6:  BTFSC  03.0
00B7:  GOTO   0BB
00B8:  SUBWF  2E,F
00B9:  BTFSS  03.0
00BA:  GOTO   0DE
00BB:  MOVF   29,W
00BC:  SUBWF  2C,F
00BD:  BTFSC  03.0
00BE:  GOTO   0C6
00BF:  MOVLW  01
00C0:  SUBWF  2D,F
00C1:  BTFSC  03.0
00C2:  GOTO   0C6
00C3:  SUBWF  2E,F
00C4:  BTFSS  03.0
00C5:  GOTO   0DE
00C6:  MOVF   28,W
00C7:  IORLW  80
00C8:  SUBWF  2D,F
00C9:  BTFSC  03.0
00CA:  GOTO   0CF
00CB:  MOVLW  01
00CC:  SUBWF  2E,F
00CD:  BTFSS  03.0
00CE:  GOTO   0DE
00CF:  INCF   7A,F
00D0:  BTFSS  03.2
00D1:  GOTO   0DE
00D2:  INCF   79,F
00D3:  BTFSS  03.2
00D4:  GOTO   0DE
00D5:  INCF   78,F
00D6:  BTFSS  03.2
00D7:  GOTO   0DE
00D8:  INCF   77,F
00D9:  BTFSC  03.2
00DA:  GOTO   0E8
00DB:  RRF    78,F
00DC:  RRF    79,F
00DD:  RRF    7A,F
00DE:  MOVF   24,W
00DF:  MOVWF  2F
00E0:  MOVF   28,W
00E1:  XORWF  2F,F
00E2:  BTFSS  2F.7
00E3:  GOTO   0E6
00E4:  BSF    78.7
00E5:  GOTO   0EC
00E6:  BCF    78.7
00E7:  GOTO   0EC
00E8:  CLRF   77
00E9:  CLRF   78
00EA:  CLRF   79
00EB:  CLRF   7A
00EC:  BCF    0A.3
00ED:  BCF    0A.4
00EE:  GOTO   164 (RETURN)
00EF:  MOVLW  8E
00F0:  MOVWF  77
00F1:  MOVF   23,W
00F2:  SUBWF  77,F
00F3:  MOVF   24,W
00F4:  MOVWF  79
00F5:  MOVF   25,W
00F6:  MOVWF  78
00F7:  BSF    79.7
00F8:  MOVF   77,F
00F9:  BTFSC  03.2
00FA:  GOTO   106
00FB:  BCF    03.0
00FC:  MOVF   79,F
00FD:  BTFSS  03.2
00FE:  GOTO   102
00FF:  MOVF   78,F
0100:  BTFSC  03.2
0101:  GOTO   106
0102:  RRF    79,F
0103:  RRF    78,F
0104:  DECFSZ 77,F
0105:  GOTO   0FB
0106:  BTFSS  24.7
0107:  GOTO   10D
0108:  COMF   78,F
0109:  COMF   79,F
010A:  INCF   78,F
010B:  BTFSC  03.2
010C:  INCF   79,F
010D:  BCF    0A.3
010E:  BCF    0A.4
010F:  GOTO   16D (RETURN)
....................  
.................... #list 
....................  
.................... #device adc=10 
....................  
.................... #FUSES NOWDT                    //No Watch Dog Timer 
.................... #FUSES HS                       //High speed Osc (> 4mhz for PCM/PCH) (>10mhz for PCD) 
.................... #FUSES NOPUT                    //No Power Up Timer 
.................... #FUSES NOPROTECT                //Code not protected from reading 
.................... #FUSES NODEBUG                  //No Debug mode for ICD 
.................... #FUSES NOBROWNOUT               //No brownout reset 
.................... #FUSES NOLVP                    //No low voltage prgming, B3(PIC16) or B5(PIC18) used for I/O 
.................... #FUSES NOCPD                    //No EE protection 
.................... #FUSES NOWRT                    //Program memory not write protected 
.................... #FUSES RESERVED                 //Used to set the reserved FUSE bits 
.................... #use delay(clock=20000000) 
.................... #use rs232(baud=9600,xmit=PIN_C6, rcv=PIN_C7) 
....................  
.................... #define LED PIN_B4 
.................... #define ND PIN_B5 
....................  
.................... #byte TRISB = 0x86 
.................... #byte PORTB = 0x06 
....................  
.................... unsigned int16 NDL; 
.................... unsigned int8 TEMP=0; 
....................  
....................  
.................... void main() 
0110:  MOVF   03,W
0111:  ANDLW  1F
0112:  MOVWF  03
0113:  MOVLW  81
0114:  BSF    03.5
0115:  MOVWF  19
0116:  MOVLW  A6
0117:  MOVWF  18
0118:  MOVLW  90
0119:  BCF    03.5
011A:  MOVWF  18
011B:  CLRF   22
011C:  BSF    03.5
011D:  BSF    1F.0
011E:  BSF    1F.1
011F:  BSF    1F.2
0120:  BCF    1F.3
0121:  MOVLW  07
0122:  MOVWF  1C
0123:  BCF    03.7
.................... { 
....................  
....................     TRISB=1; 
0124:  MOVLW  01
0125:  MOVWF  06
....................     setup_ADC(ADC_CLOCK_INTERNAL) ; 
0126:  BCF    1F.6
0127:  BCF    03.5
0128:  BSF    1F.6
0129:  BSF    1F.7
012A:  BSF    03.5
012B:  BSF    1F.7
012C:  BCF    03.5
012D:  BSF    1F.0
....................     SETUP_ADC_PORTS(AN0_VREF_VREF); 
012E:  BSF    03.5
012F:  BSF    1F.0
0130:  BSF    1F.1
0131:  BSF    1F.2
0132:  BSF    1F.3
....................     SET_ADC_CHANNEL(0); 
0133:  MOVLW  00
0134:  MOVWF  78
0135:  BCF    03.5
0136:  MOVF   1F,W
0137:  ANDLW  C7
0138:  IORWF  78,W
0139:  MOVWF  1F
....................     DELAY_US(10); 
013A:  MOVLW  10
013B:  MOVWF  77
013C:  DECFSZ 77,F
013D:  GOTO   13C
013E:  NOP
....................    
....................  
....................    while(TRUE) 
....................    { 
....................       //TODO: User Code 
....................       SET_ADC_CHANNEL(0); 
013F:  MOVLW  00
0140:  MOVWF  78
0141:  MOVF   1F,W
0142:  ANDLW  C7
0143:  IORWF  78,W
0144:  MOVWF  1F
....................       NDL=READ_ADC(); 
0145:  BSF    1F.2
0146:  BTFSC  1F.2
0147:  GOTO   146
0148:  BSF    03.5
0149:  MOVF   1E,W
014A:  BCF    03.5
014B:  MOVWF  20
014C:  MOVF   1E,W
014D:  MOVWF  21
....................       TEMP=NDL/2.046; 
014E:  MOVF   21,W
014F:  MOVWF  24
0150:  MOVF   20,W
0151:  MOVWF  23
0152:  GOTO   004
0153:  MOVF   7A,W
0154:  MOVWF  26
0155:  MOVF   79,W
0156:  MOVWF  25
0157:  MOVF   78,W
0158:  MOVWF  24
0159:  MOVF   77,W
015A:  MOVWF  23
015B:  MOVLW  AA
015C:  MOVWF  2A
015D:  MOVLW  F1
015E:  MOVWF  29
015F:  MOVLW  02
0160:  MOVWF  28
0161:  MOVLW  80
0162:  MOVWF  27
0163:  GOTO   023
0164:  MOVF   7A,W
0165:  MOVWF  26
0166:  MOVF   79,W
0167:  MOVWF  25
0168:  MOVF   78,W
0169:  MOVWF  24
016A:  MOVF   77,W
016B:  MOVWF  23
016C:  GOTO   0EF
016D:  MOVF   78,W
016E:  MOVWF  22
....................        
....................       if (input(LED)==0) 
016F:  BSF    03.5
0170:  BSF    06.4
0171:  BCF    03.5
0172:  BTFSC  06.4
0173:  GOTO   17E
....................       { 
....................            DELAY_US (10); 
0174:  MOVLW  10
0175:  MOVWF  77
0176:  DECFSZ 77,F
0177:  GOTO   176
0178:  NOP
....................            putc('L');         
0179:  MOVLW  4C
017A:  BTFSS  0C.4
017B:  GOTO   17A
017C:  MOVWF  19
....................       } 
017D:  GOTO   18C
....................       else if(input(ND)==0) 
017E:  BSF    03.5
017F:  BSF    06.5
0180:  BCF    03.5
0181:  BTFSC  06.5
0182:  GOTO   18C
....................       { 
....................              DELAY_US (10); 
0183:  MOVLW  10
0184:  MOVWF  77
0185:  DECFSZ 77,F
0186:  GOTO   185
0187:  NOP
....................               putc(TEMP);    
0188:  MOVF   22,W
0189:  BTFSS  0C.4
018A:  GOTO   189
018B:  MOVWF  19
....................       } 
018C:  GOTO   13F
....................        
....................    } 
....................  
.................... } 
018D:  SLEEP

Configuration Fuses:
   Word  1: 3F3A   HS NOWDT NOPUT NOBROWNOUT NOLVP NOCPD NOWRT NODEBUG NOPROTECT
