CCS PCM C Compiler, Version 5.015, 5967               31-Thg5-23 21:39

               Filename:   C:\Users\Administrator\Documents\project_pic\registertimero\main.lst

               ROM used:   38 words (0%)
                           Largest free fragment is 2048
               RAM used:   5 (1%) at main() level
                           6 (2%) worst case
               Stack used: 1 locations
               Stack size: 8

*
0000:  MOVLW  00
0001:  MOVWF  0A
0002:  GOTO   00F
0003:  NOP
.................... #include <16F877A.h> 
.................... //////////// Standard Header file for the PIC16F877A device //////////////// 
.................... /////////////////////////////////////////////////////////////////////////// 
.................... ////        (C) Copyright 1996, 2013 Custom Computer Services          //// 
.................... //// This source code may only be used by licensed users of the CCS C  //// 
.................... //// compiler.  This source code may only be distributed to other      //// 
.................... //// licensed users of the CCS C compiler.  No other use, reproduction //// 
.................... //// or distribution is permitted without written permission.          //// 
.................... //// Derivative programs created using this software in object code    //// 
.................... //// form are not restricted in any way.                               //// 
.................... /////////////////////////////////////////////////////////////////////////// 
.................... #device PIC16F877A 
....................  
.................... #list 
....................  
.................... #device adc=8 
....................  
.................... #FUSES NOWDT                    //No Watch Dog Timer 
.................... #FUSES HS                       //High speed Osc (> 4mhz for PCM/PCH) (>10mhz for PCD) 
.................... #FUSES NOPUT                    //No Power Up Timer 
.................... #FUSES NOPROTECT                //Code not protected from reading 
.................... #FUSES NODEBUG                  //No Debug mode for ICD 
.................... #FUSES NOBROWNOUT               //No brownout reset 
.................... #FUSES NOLVP                    //No low voltage prgming, B3(PIC16) or B5(PIC18) used for I/O 
.................... #FUSES NOCPD                    //No EE protection 
.................... #FUSES NOWRT                    //Program memory not write protected 
.................... #FUSES RESERVED                 //Used to set the reserved FUSE bits 
.................... #use delay(clock=20000000) 
.................... #byte TRISD = 0x88 
.................... #byte PORTD = 0x08 
.................... #byte OPTION_REG = 0x81 
.................... #bit T0IF = 0x0B.2 
....................  
.................... void t0delay(); 
.................... void main() 
*
000F:  MOVF   03,W
0010:  ANDLW  1F
0011:  MOVWF  03
0012:  BSF    03.5
0013:  BSF    1F.0
0014:  BSF    1F.1
0015:  BSF    1F.2
0016:  BCF    1F.3
0017:  MOVLW  07
0018:  MOVWF  1C
0019:  BCF    03.7
.................... { 
....................   TRISD=0; 
001A:  CLRF   08
....................   OPTION_REG=0x07;   //Prescale is assigned to Timer 0, Prescaler value = 256, Fclk = 11.0592MHz 
001B:  MOVLW  07
001C:  MOVWF  01
....................   while(1) { 
....................     PORTD=0xff; 
001D:  MOVLW  FF
001E:  BCF    03.5
001F:  MOVWF  08
....................     t0delay(); 
0020:  CALL   004
....................     PORTD=0x00; 
0021:  CLRF   08
....................     t0delay(); 
0022:  CALL   004
0023:  BSF    03.5
0024:  GOTO   01D
....................   } 
.................... } 
.................... void t0delay()          // 1 second 
0025:  SLEEP
.................... { 
....................   int i; 
....................   for(i=0;i<42;i++) { 
*
0004:  CLRF   21
0005:  MOVF   21,W
0006:  SUBLW  29
0007:  BTFSS  03.0
0008:  GOTO   00E
....................     while(!T0IF); 
0009:  BTFSS  0B.2
000A:  GOTO   009
....................     T0IF=0; 
000B:  BCF    0B.2
000C:  INCF   21,F
000D:  GOTO   005
....................   } 
000E:  RETURN
.................... }   

Configuration Fuses:
   Word  1: 3F3A   HS NOWDT NOPUT NOBROWNOUT NOLVP NOCPD NOWRT NODEBUG NOPROTECT
